; Function Attrs: mustprogress nofree norecurse nosync nounwind willreturn memory(argmem: write) uwtable
define void @_ZN5Ipopt19DenseGenMatrixSpaceC2Eii(ptr noundef nonnull writeonly align 8 captures(none) dereferenceable(20) initializes((0, 20)) %0, i32 noundef %1, i32 noundef %2) unnamed_addr #8 align 2 {
  %4 = getelementptr inbounds nuw i8, ptr %0, i64 8
  store i32 0, ptr %4, align 8, !tbaa !11
  %5 = getelementptr inbounds nuw i8, ptr %0, i64 12
  store i32 %1, ptr %5, align 4, !tbaa !33
  %6 = getelementptr inbounds nuw i8, ptr %0, i64 16
  store i32 %2, ptr %6, align 8, !tbaa !31
  store ptr getelementptr inbounds nuw inrange(-16, 24) (i8, ptr @_ZTVN5Ipopt19DenseGenMatrixSpaceE, i64 16), ptr %0, align 8, !tbaa !3
  ret void
}